target datalayout = "e-m:e-p270:32:32-p271:32:32-p272:64:64-i64:64-i128:128-f80:128-n8:16:32:64-S128"
target triple = "x86_64-pc-linux-gnu"

%"class.icu_77::GregorianCalendar" = type <{ %"class.icu_77::Calendar", double, i32, [4 x i8], double, i32, i8, i8, [2 x i8] }>
%"class.icu_77::Calendar" = type <{ %"class.icu_77::UObject", [24 x i32], [24 x i8], i8, [7 x i8], double, ptr, i8, i16, i8, i32, i32, i32, i8, i8, i16, [4 x i8], ptr, ptr }>
%"class.icu_77::UObject" = type { ptr }

; Function Attrs: mustprogress nounwind uwtable
define noundef signext i8 @_ZNK6icu_7717GregorianCalendar10isLeapYearEi(ptr noundef nonnull align 8 dereferenceable(222) %0, i32 noundef %1) #0 align 2 {
  %3 = alloca ptr, align 8
  %4 = alloca i32, align 4
  store ptr %0, ptr %3, align 8, !tbaa !3
  store i32 %1, ptr %4, align 4, !tbaa !31
  %5 = load ptr, ptr %3, align 8
  %6 = load i32, ptr %4, align 4, !tbaa !31
  %7 = getelementptr inbounds nuw %"class.icu_77::GregorianCalendar", ptr %5, i32 0, i32 5
  %8 = load i32, ptr %7, align 8, !tbaa !25
  %9 = icmp sge i32 %6, %8
  br i1 %9, label %10, label %26

10:                                               ; preds = %2
  %11 = load i32, ptr %4, align 4, !tbaa !31
  %12 = and i32 %11, 3
  %13 = icmp eq i32 %12, 0
  br i1 %13, label %14, label %24

14:                                               ; preds = %10
  %15 = load i32, ptr %4, align 4, !tbaa !31
  %16 = srem i32 %15, 100
  %17 = icmp ne i32 %16, 0
  br i1 %17, label %22, label %18

18:                                               ; preds = %14
  %19 = load i32, ptr %4, align 4, !tbaa !31
  %20 = srem i32 %19, 400
  %21 = icmp eq i32 %20, 0
  br label %22

22:                                               ; preds = %18, %14
  %23 = phi i1 [ true, %14 ], [ %21, %18 ]
  br label %24

24:                                               ; preds = %22, %10
  %25 = phi i1 [ false, %10 ], [ %23, %22 ]
  br label %30

26:                                               ; preds = %2
  %27 = load i32, ptr %4, align 4, !tbaa !31
  %28 = and i32 %27, 3
  %29 = icmp eq i32 %28, 0
  br label %30

30:                                               ; preds = %26, %24
  %31 = phi i1 [ %25, %24 ], [ %29, %26 ]
  %32 = zext i1 %31 to i8
  ret i8 %32
}