; Function Attrs: mustprogress nofree norecurse nosync nounwind willreturn memory(argmem: read) uwtable
define noundef signext range(i8 0, 2) i8 @_ZNK6icu_7717GregorianCalendar10isLeapYearEi(ptr noundef nonnull readonly align 8 captures(none) dereferenceable(222) %0, i32 noundef %1) local_unnamed_addr #7 align 2 {
  %3 = getelementptr inbounds nuw i8, ptr %0, i64 216
  %4 = load i32, ptr %3, align 8, !tbaa !22
  %.not = icmp slt i32 %1, %4
  %5 = and i32 %1, 3
  %6 = icmp eq i32 %5, 0
  %.not6 = xor i1 %6, true
  %brmerge = or i1 %.not, %.not6
  %.mux = and i1 %.not, %6
  br i1 %brmerge, label %12, label %7

7:                                                ; preds = %2
  %8 = srem i32 %1, 100
  %.not5 = icmp eq i32 %8, 0
  br i1 %.not5, label %9, label %12

9:                                                ; preds = %7
  %10 = srem i32 %1, 400
  %11 = icmp eq i32 %10, 0
  br label %12

12:                                               ; preds = %2, %9, %7
  %13 = phi i1 [ true, %7 ], [ %11, %9 ], [ %.mux, %2 ]
  %14 = zext i1 %13 to i8
  ret i8 %14
}